target datalayout = "e-m:e-p270:32:32-p271:32:32-p272:64:64-i64:64-i128:128-f80:128-n8:16:32:64-S128"
target triple = "x86_64-pc-linux-gnu"

%struct._fcgi_request = type { i32, i32, i32, i32, i32, i32, i32, i32, i32, ptr, ptr, [8192 x i8], [16 x i8], %struct._fcgi_req_hook, i32, %struct._fcgi_hash }
%struct._fcgi_req_hook = type { ptr, ptr, ptr }
%struct._fcgi_hash = type { [128 x ptr], ptr, ptr, ptr }

; Function Attrs: nounwind uwtable
define hidden i32 @fcgi_end(ptr noundef %0) #0 {
  %2 = alloca ptr, align 8
  %3 = alloca i32, align 4
  store ptr %0, ptr %2, align 8
  store i32 1, ptr %3, align 4
  %4 = load ptr, ptr %2, align 8
  %5 = getelementptr inbounds %struct._fcgi_request, ptr %4, i32 0, i32 6
  %6 = load i32, ptr %5, align 8
  %7 = icmp ne i32 %6, 0
  br i1 %7, label %13, label %8

8:                                                ; preds = %1
  %9 = load ptr, ptr %2, align 8
  %10 = call i32 @fcgi_flush(ptr noundef %9, i32 noundef 1)
  store i32 %10, ptr %3, align 4
  %11 = load ptr, ptr %2, align 8
  %12 = getelementptr inbounds %struct._fcgi_request, ptr %11, i32 0, i32 6
  store i32 1, ptr %12, align 8
  br label %13

13:                                               ; preds = %8, %1
  %14 = load i32, ptr %3, align 4
  ret i32 %14
}

; Function Attrs: nounwind uwtable
define hidden i32 @fcgi_finish_request(ptr noundef %0, i32 noundef %1) #0 {
  %3 = alloca ptr, align 8
  %4 = alloca i32, align 4
  %5 = alloca i32, align 4
  store ptr %0, ptr %3, align 8
  store i32 %1, ptr %4, align 4
  store i32 1, ptr %5, align 4
  %6 = load ptr, ptr %3, align 8
  %7 = getelementptr inbounds %struct._fcgi_request, ptr %6, i32 0, i32 2
  %8 = load i32, ptr %7, align 8
  %9 = icmp sge i32 %8, 0
  br i1 %9, label %10, label %15

10:                                               ; preds = %2
  %11 = load ptr, ptr %3, align 8
  %12 = call i32 @fcgi_end(ptr noundef %11)
  store i32 %12, ptr %5, align 4
  %13 = load ptr, ptr %3, align 8
  %14 = load i32, ptr %4, align 4
  call void @fcgi_close(ptr noundef %13, i32 noundef %14, i32 noundef 1)
  br label %15

15:                                               ; preds = %10, %2
  %16 = load i32, ptr %5, align 4
  ret i32 %16
}