; Function Attrs: nounwind uwtable
define hidden noundef i32 @fcgi_finish_request(ptr noundef %0, i32 noundef %1) local_unnamed_addr #3 {
  %3 = getelementptr inbounds i8, ptr %0, i64 8
  %4 = load i32, ptr %3, align 8
  %5 = icmp sgt i32 %4, -1
  br i1 %5, label %6, label %11

6:                                                ; preds = %2
  %7 = getelementptr inbounds i8, ptr %0, i64 24
  %8 = load i32, ptr %7, align 8
  %.not.i = icmp eq i32 %8, 0
  br i1 %.not.i, label %9, label %fcgi_end.exit

9:                                                ; preds = %6
  %10 = tail call i32 @fcgi_flush(ptr noundef nonnull %0, i32 noundef 1), !range !4
  store i32 1, ptr %7, align 8
  br label %fcgi_end.exit

fcgi_end.exit:                                    ; preds = %6, %9
  %.0.i = phi i32 [ 1, %6 ], [ %10, %9 ]
  tail call void @fcgi_close(ptr noundef nonnull %0, i32 noundef %1, i32 noundef 1)
  br label %11

11:                                               ; preds = %fcgi_end.exit, %2
  %.0 = phi i32 [ %.0.i, %fcgi_end.exit ], [ 1, %2 ]
  ret i32 %.0
}